target datalayout = "e-m:e-p270:32:32-p271:32:32-p272:64:64-i64:64-i128:128-f80:128-n8:16:32:64-S128"
target triple = "x86_64-pc-linux-gnu"

%struct.addrinfo = type { i32, i32, i32, i32, i32, ptr, ptr, ptr }
%struct.__va_list_tag = type { i32, i32, ptr, ptr }

@.str = private unnamed_addr constant [6 x i8] c"%s://\00", align 1
@.str.1 = private unnamed_addr constant [4 x i8] c"%s@\00", align 1
@.str.2 = private unnamed_addr constant [2 x i8] c"[\00", align 1
@.str.3 = private unnamed_addr constant [2 x i8] c"]\00", align 1
@.str.4 = private unnamed_addr constant [4 x i8] c":%d\00", align 1

; Function Attrs: nounwind uwtable
define i32 @ff_url_join(ptr noundef %0, i32 noundef %1, ptr noundef %2, ptr noundef %3, ptr noundef %4, i32 noundef %5, ptr noundef %6, ...) #0 {
  %8 = alloca ptr, align 8
  %9 = alloca i32, align 4
  %10 = alloca ptr, align 8
  %11 = alloca ptr, align 8
  %12 = alloca ptr, align 8
  %13 = alloca i32, align 4
  %14 = alloca ptr, align 8
  %15 = alloca %struct.addrinfo, align 8
  %16 = alloca ptr, align 8
  %17 = alloca [1 x %struct.__va_list_tag], align 16
  %18 = alloca i64, align 8
  store ptr %0, ptr %8, align 8, !tbaa !4
  store i32 %1, ptr %9, align 4, !tbaa !9
  store ptr %2, ptr %10, align 8, !tbaa !4
  store ptr %3, ptr %11, align 8, !tbaa !4
  store ptr %4, ptr %12, align 8, !tbaa !4
  store i32 %5, ptr %13, align 4, !tbaa !9
  store ptr %6, ptr %14, align 8, !tbaa !4
  call void @llvm.lifetime.start.p0(i64 48, ptr %15) #9
  call void @llvm.memset.p0.i64(ptr align 8 %15, i8 0, i64 48, i1 false)
  call void @llvm.lifetime.start.p0(i64 8, ptr %16) #9
  %19 = load ptr, ptr %8, align 8, !tbaa !4
  %20 = getelementptr inbounds i8, ptr %19, i64 0
  store i8 0, ptr %20, align 1, !tbaa !11
  %21 = load ptr, ptr %10, align 8, !tbaa !4
  %22 = icmp ne ptr %21, null
  br i1 %22, label %23, label %29

23:                                               ; preds = %7
  %24 = load ptr, ptr %8, align 8, !tbaa !4
  %25 = load i32, ptr %9, align 4, !tbaa !9
  %26 = sext i32 %25 to i64
  %27 = load ptr, ptr %10, align 8, !tbaa !4
  %28 = call i64 (ptr, i64, ptr, ...) @av_strlcatf(ptr noundef %24, i64 noundef %26, ptr noundef @.str, ptr noundef %27)
  br label %29

29:                                               ; preds = %23, %7
  %30 = load ptr, ptr %11, align 8, !tbaa !4
  %31 = icmp ne ptr %30, null
  br i1 %31, label %32, label %44

32:                                               ; preds = %29
  %33 = load ptr, ptr %11, align 8, !tbaa !4
  %34 = getelementptr inbounds i8, ptr %33, i64 0
  %35 = load i8, ptr %34, align 1, !tbaa !11
  %36 = sext i8 %35 to i32
  %37 = icmp ne i32 %36, 0
  br i1 %37, label %38, label %44

38:                                               ; preds = %32
  %39 = load ptr, ptr %8, align 8, !tbaa !4
  %40 = load i32, ptr %9, align 4, !tbaa !9
  %41 = sext i32 %40 to i64
  %42 = load ptr, ptr %11, align 8, !tbaa !4
  %43 = call i64 (ptr, i64, ptr, ...) @av_strlcatf(ptr noundef %39, i64 noundef %41, ptr noundef @.str.1, ptr noundef %42)
  br label %44

44:                                               ; preds = %38, %32, %29
  %45 = getelementptr inbounds nuw %struct.addrinfo, ptr %15, i32 0, i32 0
  store i32 4, ptr %45, align 8, !tbaa !12
  %46 = load ptr, ptr %12, align 8, !tbaa !4
  %47 = call i32 @getaddrinfo(ptr noundef %46, ptr noundef null, ptr noundef %15, ptr noundef %16)
  %48 = icmp ne i32 %47, 0
  br i1 %48, label %76, label %49

49:                                               ; preds = %44
  %50 = load ptr, ptr %16, align 8, !tbaa !16
  %51 = getelementptr inbounds nuw %struct.addrinfo, ptr %50, i32 0, i32 1
  %52 = load i32, ptr %51, align 4, !tbaa !17
  %53 = icmp eq i32 %52, 10
  br i1 %53, label %54, label %68

54:                                               ; preds = %49
  %55 = load ptr, ptr %8, align 8, !tbaa !4
  %56 = load i32, ptr %9, align 4, !tbaa !9
  %57 = sext i32 %56 to i64
  %58 = call i64 @av_strlcat(ptr noundef %55, ptr noundef @.str.2, i64 noundef %57)
  %59 = load ptr, ptr %8, align 8, !tbaa !4
  %60 = load ptr, ptr %12, align 8, !tbaa !4
  %61 = load i32, ptr %9, align 4, !tbaa !9
  %62 = sext i32 %61 to i64
  %63 = call i64 @av_strlcat(ptr noundef %59, ptr noundef %60, i64 noundef %62)
  %64 = load ptr, ptr %8, align 8, !tbaa !4
  %65 = load i32, ptr %9, align 4, !tbaa !9
  %66 = sext i32 %65 to i64
  %67 = call i64 @av_strlcat(ptr noundef %64, ptr noundef @.str.3, i64 noundef %66)
  br label %74

68:                                               ; preds = %49
  %69 = load ptr, ptr %8, align 8, !tbaa !4
  %70 = load ptr, ptr %12, align 8, !tbaa !4
  %71 = load i32, ptr %9, align 4, !tbaa !9
  %72 = sext i32 %71 to i64
  %73 = call i64 @av_strlcat(ptr noundef %69, ptr noundef %70, i64 noundef %72)
  br label %74

74:                                               ; preds = %68, %54
  %75 = load ptr, ptr %16, align 8, !tbaa !16
  call void @freeaddrinfo(ptr noundef %75) #9
  br label %82

76:                                               ; preds = %44
  %77 = load ptr, ptr %8, align 8, !tbaa !4
  %78 = load ptr, ptr %12, align 8, !tbaa !4
  %79 = load i32, ptr %9, align 4, !tbaa !9
  %80 = sext i32 %79 to i64
  %81 = call i64 @av_strlcat(ptr noundef %77, ptr noundef %78, i64 noundef %80)
  br label %82

82:                                               ; preds = %76, %74
  %83 = load i32, ptr %13, align 4, !tbaa !9
  %84 = icmp sge i32 %83, 0
  br i1 %84, label %85, label %91

85:                                               ; preds = %82
  %86 = load ptr, ptr %8, align 8, !tbaa !4
  %87 = load i32, ptr %9, align 4, !tbaa !9
  %88 = sext i32 %87 to i64
  %89 = load i32, ptr %13, align 4, !tbaa !9
  %90 = call i64 (ptr, i64, ptr, ...) @av_strlcatf(ptr noundef %86, i64 noundef %88, ptr noundef @.str.4, i32 noundef %89)
  br label %91

91:                                               ; preds = %85, %82
  %92 = load ptr, ptr %14, align 8, !tbaa !4
  %93 = icmp ne ptr %92, null
  br i1 %93, label %94, label %117

94:                                               ; preds = %91
  call void @llvm.lifetime.start.p0(i64 24, ptr %17) #9
  call void @llvm.lifetime.start.p0(i64 8, ptr %18) #9
  %95 = load ptr, ptr %8, align 8, !tbaa !4
  %96 = call i64 @strlen(ptr noundef %95) #10
  store i64 %96, ptr %18, align 8, !tbaa !18
  %97 = getelementptr inbounds [1 x %struct.__va_list_tag], ptr %17, i64 0, i64 0
  call void @llvm.va_start.p0(ptr %97)
  %98 = load ptr, ptr %8, align 8, !tbaa !4
  %99 = load i64, ptr %18, align 8, !tbaa !18
  %100 = getelementptr inbounds nuw i8, ptr %98, i64 %99
  %101 = load i32, ptr %9, align 4, !tbaa !9
  %102 = sext i32 %101 to i64
  %103 = load i64, ptr %18, align 8, !tbaa !18
  %104 = icmp ugt i64 %102, %103
  br i1 %104, label %105, label %110

105:                                              ; preds = %94
  %106 = load i32, ptr %9, align 4, !tbaa !9
  %107 = sext i32 %106 to i64
  %108 = load i64, ptr %18, align 8, !tbaa !18
  %109 = sub i64 %107, %108
  br label %111

110:                                              ; preds = %94
  br label %111

111:                                              ; preds = %110, %105
  %112 = phi i64 [ %109, %105 ], [ 0, %110 ]
  %113 = load ptr, ptr %14, align 8, !tbaa !4
  %114 = getelementptr inbounds [1 x %struct.__va_list_tag], ptr %17, i64 0, i64 0
  %115 = call i32 @vsnprintf(ptr noundef %100, i64 noundef %112, ptr noundef %113, ptr noundef %114) #9
  %116 = getelementptr inbounds [1 x %struct.__va_list_tag], ptr %17, i64 0, i64 0
  call void @llvm.va_end.p0(ptr %116)
  call void @llvm.lifetime.end.p0(i64 8, ptr %18) #9
  call void @llvm.lifetime.end.p0(i64 24, ptr %17) #9
  br label %117

117:                                              ; preds = %111, %91
  %118 = load ptr, ptr %8, align 8, !tbaa !4
  %119 = call i64 @strlen(ptr noundef %118) #10
  %120 = trunc i64 %119 to i32
  call void @llvm.lifetime.end.p0(i64 8, ptr %16) #9
  call void @llvm.lifetime.end.p0(i64 48, ptr %15) #9
  ret i32 %120
}