; Function Attrs: nounwind uwtable
define i32 @ff_url_join(ptr noundef initializes((0, 1)) %0, i32 noundef %1, ptr noundef %2, ptr noundef %3, ptr noundef %4, i32 noundef %5, ptr noundef readonly captures(address_is_null) %6, ...) local_unnamed_addr #0 {
  %8 = alloca %struct.addrinfo, align 8
  %9 = alloca ptr, align 8
  %10 = alloca [1 x %struct.__va_list_tag], align 16
  call void @llvm.lifetime.start.p0(i64 48, ptr nonnull %8) #12
  call void @llvm.memset.p0.i64(ptr noundef nonnull align 8 dereferenceable(48) %8, i8 0, i64 48, i1 false)
  call void @llvm.lifetime.start.p0(i64 8, ptr nonnull %9) #12
  store i8 0, ptr %0, align 1, !tbaa !4
  %.not = icmp eq ptr %2, null
  br i1 %.not, label %14, label %11

11:                                               ; preds = %7
  %12 = sext i32 %1 to i64
  %13 = tail call i64 (ptr, i64, ptr, ...) @av_strlcatf(ptr noundef nonnull %0, i64 noundef %12, ptr noundef nonnull @.str, ptr noundef nonnull %2) #12
  br label %14

14:                                               ; preds = %11, %7
  %.not40 = icmp eq ptr %3, null
  br i1 %.not40, label %20, label %15

15:                                               ; preds = %14
  %16 = load i8, ptr %3, align 1, !tbaa !4
  %.not41 = icmp eq i8 %16, 0
  br i1 %.not41, label %20, label %17

17:                                               ; preds = %15
  %18 = sext i32 %1 to i64
  %19 = tail call i64 (ptr, i64, ptr, ...) @av_strlcatf(ptr noundef nonnull %0, i64 noundef %18, ptr noundef nonnull @.str.1, ptr noundef nonnull %3) #12
  br label %20

20:                                               ; preds = %17, %15, %14
  store i32 4, ptr %8, align 8, !tbaa !7
  %21 = call i32 @getaddrinfo(ptr noundef %4, ptr noundef null, ptr noundef nonnull %8, ptr noundef nonnull %9) #12
  %.not42 = icmp eq i32 %21, 0
  br i1 %.not42, label %22, label %34

22:                                               ; preds = %20
  %23 = load ptr, ptr %9, align 8, !tbaa !14
  %24 = getelementptr inbounds nuw i8, ptr %23, i64 4
  %25 = load i32, ptr %24, align 4, !tbaa !15
  %26 = icmp eq i32 %25, 10
  %27 = sext i32 %1 to i64
  br i1 %26, label %28, label %31

28:                                               ; preds = %22
  %29 = call i64 @av_strlcat(ptr noundef nonnull %0, ptr noundef nonnull @.str.2, i64 noundef %27) #12
  %30 = call i64 @av_strlcat(ptr noundef nonnull %0, ptr noundef %4, i64 noundef %27) #12
  br label %31

31:                                               ; preds = %22, %28
  %.sink = phi ptr [ @.str.3, %28 ], [ %4, %22 ]
  %32 = call i64 @av_strlcat(ptr noundef nonnull %0, ptr noundef %.sink, i64 noundef %27) #12
  %33 = load ptr, ptr %9, align 8, !tbaa !14
  call void @freeaddrinfo(ptr noundef %33) #12
  br label %37

34:                                               ; preds = %20
  %35 = sext i32 %1 to i64
  %36 = call i64 @av_strlcat(ptr noundef nonnull %0, ptr noundef %4, i64 noundef %35) #12
  br label %37

37:                                               ; preds = %34, %31
  %38 = icmp sgt i32 %5, -1
  br i1 %38, label %39, label %42

39:                                               ; preds = %37
  %40 = sext i32 %1 to i64
  %41 = call i64 (ptr, i64, ptr, ...) @av_strlcatf(ptr noundef nonnull %0, i64 noundef %40, ptr noundef nonnull @.str.4, i32 noundef %5) #12
  br label %42

42:                                               ; preds = %39, %37
  %.not43 = icmp eq ptr %6, null
  br i1 %.not43, label %49, label %43

43:                                               ; preds = %42
  call void @llvm.lifetime.start.p0(i64 24, ptr nonnull %10) #12
  %44 = call i64 @strlen(ptr noundef nonnull dereferenceable(1) %0) #13
  call void @llvm.va_start.p0(ptr nonnull %10)
  %45 = getelementptr inbounds nuw i8, ptr %0, i64 %44
  %46 = sext i32 %1 to i64
  %47 = call i64 @llvm.usub.sat.i64(i64 %46, i64 %44)
  %48 = call i32 @vsnprintf(ptr noundef nonnull %45, i64 noundef %47, ptr noundef nonnull %6, ptr noundef nonnull %10) #12
  call void @llvm.va_end.p0(ptr nonnull %10)
  call void @llvm.lifetime.end.p0(i64 24, ptr nonnull %10) #12
  br label %49

49:                                               ; preds = %43, %42
  %50 = call i64 @strlen(ptr noundef nonnull dereferenceable(1) %0) #13
  %51 = trunc i64 %50 to i32
  call void @llvm.lifetime.end.p0(i64 8, ptr nonnull %9) #12
  call void @llvm.lifetime.end.p0(i64 48, ptr nonnull %8) #12
  ret i32 %51
}